target datalayout = "e-m:e-p270:32:32-p271:32:32-p272:64:64-i64:64-i128:128-f80:128-n8:16:32:64-S128"
target triple = "x86_64-pc-linux-gnu"

%struct.jpeg_decompress_struct = type { ptr, ptr, ptr, ptr, i32, i32, ptr, i32, i32, i32, i32, i32, i32, i32, double, i32, i32, i32, i32, i32, i32, i32, i32, i32, i32, i32, i32, i32, i32, i32, i32, i32, i32, ptr, i32, i32, i32, i32, i32, ptr, [4 x ptr], [4 x ptr], [4 x ptr], i32, ptr, i32, i32, [16 x i8], [16 x i8], [16 x i8], i32, i32, i8, i8, i8, i16, i16, i32, i8, i32, ptr, i32, i32, i32, i32, ptr, i32, [4 x ptr], i32, i32, i32, [10 x i32], i32, i32, i32, i32, i32, ptr, ptr, ptr, ptr, ptr, ptr, ptr, ptr, ptr, ptr, ptr }
%struct.jpeg_error_mgr = type { ptr, ptr, ptr, ptr, ptr, i32, %union.anon, i32, i64, ptr, i32, ptr, i32, i32 }
%union.anon = type { [8 x i32], [48 x i8] }
%struct.jpeg_memory_mgr = type { ptr, ptr, ptr, ptr, ptr, ptr, ptr, ptr, ptr, ptr, ptr, i64, i64 }
%struct.my_post_controller = type { %struct.jpeg_d_post_controller, ptr, ptr, i32, i32, i32 }
%struct.jpeg_d_post_controller = type { ptr, ptr, ptr, ptr }
%struct.jpeg_upsampler = type { ptr, ptr, ptr, ptr, i32 }

; Function Attrs: nounwind uwtable
define internal void @start_pass_dpost(ptr noundef %0, i32 noundef %1) #0 {
  %3 = alloca ptr, align 8
  %4 = alloca i32, align 4
  %5 = alloca ptr, align 8
  store ptr %0, ptr %3, align 8, !tbaa !3
  store i32 %1, ptr %4, align 4, !tbaa !8
  call void @llvm.lifetime.start.p0(i64 8, ptr %5) #3
  %6 = load ptr, ptr %3, align 8, !tbaa !3
  %7 = getelementptr inbounds nuw %struct.jpeg_decompress_struct, ptr %6, i32 0, i32 80
  %8 = load ptr, ptr %7, align 8, !tbaa !46
  store ptr %8, ptr %5, align 8, !tbaa !45
  %9 = load i32, ptr %4, align 4, !tbaa !8
  switch i32 %9, label %90 [
    i32 0, label %10
    i32 3, label %50
    i32 2, label %70
  ]

10:                                               ; preds = %2
  %11 = load ptr, ptr %3, align 8, !tbaa !3
  %12 = getelementptr inbounds nuw %struct.jpeg_decompress_struct, ptr %11, i32 0, i32 20
  %13 = load i32, ptr %12, align 4, !tbaa !53
  %14 = icmp ne i32 %13, 0
  br i1 %14, label %15, label %40

15:                                               ; preds = %10
  %16 = load ptr, ptr %5, align 8, !tbaa !45
  %17 = getelementptr inbounds nuw %struct.my_post_controller, ptr %16, i32 0, i32 0
  %18 = getelementptr inbounds nuw %struct.jpeg_d_post_controller, ptr %17, i32 0, i32 1
  store ptr @post_process_1pass, ptr %18, align 8, !tbaa !61
  %19 = load ptr, ptr %5, align 8, !tbaa !45
  %20 = getelementptr inbounds nuw %struct.my_post_controller, ptr %19, i32 0, i32 2
  %21 = load ptr, ptr %20, align 8, !tbaa !52
  %22 = icmp eq ptr %21, null
  br i1 %22, label %23, label %39

23:                                               ; preds = %15
  %24 = load ptr, ptr %3, align 8, !tbaa !3
  %25 = getelementptr inbounds nuw %struct.jpeg_decompress_struct, ptr %24, i32 0, i32 1
  %26 = load ptr, ptr %25, align 8, !tbaa !42
  %27 = getelementptr inbounds nuw %struct.jpeg_memory_mgr, ptr %26, i32 0, i32 7
  %28 = load ptr, ptr %27, align 8, !tbaa !62
  %29 = load ptr, ptr %3, align 8, !tbaa !3
  %30 = load ptr, ptr %5, align 8, !tbaa !45
  %31 = getelementptr inbounds nuw %struct.my_post_controller, ptr %30, i32 0, i32 1
  %32 = load ptr, ptr %31, align 8, !tbaa !51
  %33 = load ptr, ptr %5, align 8, !tbaa !45
  %34 = getelementptr inbounds nuw %struct.my_post_controller, ptr %33, i32 0, i32 3
  %35 = load i32, ptr %34, align 8, !tbaa !55
  %36 = call ptr %28(ptr noundef %29, ptr noundef %32, i32 noundef 0, i32 noundef %35, i32 noundef 1)
  %37 = load ptr, ptr %5, align 8, !tbaa !45
  %38 = getelementptr inbounds nuw %struct.my_post_controller, ptr %37, i32 0, i32 2
  store ptr %36, ptr %38, align 8, !tbaa !52
  br label %39

39:                                               ; preds = %23, %15
  br label %49

40:                                               ; preds = %10
  %41 = load ptr, ptr %3, align 8, !tbaa !3
  %42 = getelementptr inbounds nuw %struct.jpeg_decompress_struct, ptr %41, i32 0, i32 85
  %43 = load ptr, ptr %42, align 8, !tbaa !63
  %44 = getelementptr inbounds nuw %struct.jpeg_upsampler, ptr %43, i32 0, i32 1
  %45 = load ptr, ptr %44, align 8, !tbaa !64
  %46 = load ptr, ptr %5, align 8, !tbaa !45
  %47 = getelementptr inbounds nuw %struct.my_post_controller, ptr %46, i32 0, i32 0
  %48 = getelementptr inbounds nuw %struct.jpeg_d_post_controller, ptr %47, i32 0, i32 1
  store ptr %45, ptr %48, align 8, !tbaa !61
  br label %49

49:                                               ; preds = %40, %39
  br label %101

50:                                               ; preds = %2
  %51 = load ptr, ptr %5, align 8, !tbaa !45
  %52 = getelementptr inbounds nuw %struct.my_post_controller, ptr %51, i32 0, i32 1
  %53 = load ptr, ptr %52, align 8, !tbaa !51
  %54 = icmp eq ptr %53, null
  br i1 %54, label %55, label %66

55:                                               ; preds = %50
  %56 = load ptr, ptr %3, align 8, !tbaa !3
  %57 = getelementptr inbounds nuw %struct.jpeg_decompress_struct, ptr %56, i32 0, i32 0
  %58 = load ptr, ptr %57, align 8, !tbaa !36
  %59 = getelementptr inbounds nuw %struct.jpeg_error_mgr, ptr %58, i32 0, i32 5
  store i32 4, ptr %59, align 8, !tbaa !37
  %60 = load ptr, ptr %3, align 8, !tbaa !3
  %61 = getelementptr inbounds nuw %struct.jpeg_decompress_struct, ptr %60, i32 0, i32 0
  %62 = load ptr, ptr %61, align 8, !tbaa !36
  %63 = getelementptr inbounds nuw %struct.jpeg_error_mgr, ptr %62, i32 0, i32 0
  %64 = load ptr, ptr %63, align 8, !tbaa !41
  %65 = load ptr, ptr %3, align 8, !tbaa !3
  call void %64(ptr noundef %65)
  br label %66

66:                                               ; preds = %55, %50
  %67 = load ptr, ptr %5, align 8, !tbaa !45
  %68 = getelementptr inbounds nuw %struct.my_post_controller, ptr %67, i32 0, i32 0
  %69 = getelementptr inbounds nuw %struct.jpeg_d_post_controller, ptr %68, i32 0, i32 1
  store ptr @post_process_prepass, ptr %69, align 8, !tbaa !61
  br label %101

70:                                               ; preds = %2
  %71 = load ptr, ptr %5, align 8, !tbaa !45
  %72 = getelementptr inbounds nuw %struct.my_post_controller, ptr %71, i32 0, i32 1
  %73 = load ptr, ptr %72, align 8, !tbaa !51
  %74 = icmp eq ptr %73, null
  br i1 %74, label %75, label %86

75:                                               ; preds = %70
  %76 = load ptr, ptr %3, align 8, !tbaa !3
  %77 = getelementptr inbounds nuw %struct.jpeg_decompress_struct, ptr %76, i32 0, i32 0
  %78 = load ptr, ptr %77, align 8, !tbaa !36
  %79 = getelementptr inbounds nuw %struct.jpeg_error_mgr, ptr %78, i32 0, i32 5
  store i32 4, ptr %79, align 8, !tbaa !37
  %80 = load ptr, ptr %3, align 8, !tbaa !3
  %81 = getelementptr inbounds nuw %struct.jpeg_decompress_struct, ptr %80, i32 0, i32 0
  %82 = load ptr, ptr %81, align 8, !tbaa !36
  %83 = getelementptr inbounds nuw %struct.jpeg_error_mgr, ptr %82, i32 0, i32 0
  %84 = load ptr, ptr %83, align 8, !tbaa !41
  %85 = load ptr, ptr %3, align 8, !tbaa !3
  call void %84(ptr noundef %85)
  br label %86

86:                                               ; preds = %75, %70
  %87 = load ptr, ptr %5, align 8, !tbaa !45
  %88 = getelementptr inbounds nuw %struct.my_post_controller, ptr %87, i32 0, i32 0
  %89 = getelementptr inbounds nuw %struct.jpeg_d_post_controller, ptr %88, i32 0, i32 1
  store ptr @post_process_2pass, ptr %89, align 8, !tbaa !61
  br label %101

90:                                               ; preds = %2
  %91 = load ptr, ptr %3, align 8, !tbaa !3
  %92 = getelementptr inbounds nuw %struct.jpeg_decompress_struct, ptr %91, i32 0, i32 0
  %93 = load ptr, ptr %92, align 8, !tbaa !36
  %94 = getelementptr inbounds nuw %struct.jpeg_error_mgr, ptr %93, i32 0, i32 5
  store i32 4, ptr %94, align 8, !tbaa !37
  %95 = load ptr, ptr %3, align 8, !tbaa !3
  %96 = getelementptr inbounds nuw %struct.jpeg_decompress_struct, ptr %95, i32 0, i32 0
  %97 = load ptr, ptr %96, align 8, !tbaa !36
  %98 = getelementptr inbounds nuw %struct.jpeg_error_mgr, ptr %97, i32 0, i32 0
  %99 = load ptr, ptr %98, align 8, !tbaa !41
  %100 = load ptr, ptr %3, align 8, !tbaa !3
  call void %99(ptr noundef %100)
  br label %101

101:                                              ; preds = %90, %86, %66, %49
  %102 = load ptr, ptr %5, align 8, !tbaa !45
  %103 = getelementptr inbounds nuw %struct.my_post_controller, ptr %102, i32 0, i32 5
  store i32 0, ptr %103, align 8, !tbaa !66
  %104 = load ptr, ptr %5, align 8, !tbaa !45
  %105 = getelementptr inbounds nuw %struct.my_post_controller, ptr %104, i32 0, i32 4
  store i32 0, ptr %105, align 4, !tbaa !67
  call void @llvm.lifetime.end.p0(i64 8, ptr %5) #3
  ret void
}