; Function Attrs: nounwind uwtable
define internal void @start_pass_dpost(ptr noundef %0, i32 noundef %1) #0 {
  %3 = getelementptr inbounds nuw i8, ptr %0, i64 568
  %4 = load ptr, ptr %3, align 8, !tbaa !42
  switch i32 %1, label %49 [
    i32 0, label %5
    i32 3, label %29
    i32 2, label %39
  ]

5:                                                ; preds = %2
  %6 = getelementptr inbounds nuw i8, ptr %0, i64 108
  %7 = load i32, ptr %6, align 4, !tbaa !47
  %.not = icmp eq i32 %7, 0
  br i1 %.not, label %23, label %8

8:                                                ; preds = %5
  %9 = getelementptr inbounds nuw i8, ptr %4, i64 8
  store ptr @post_process_1pass, ptr %9, align 8, !tbaa !57
  %10 = getelementptr inbounds nuw i8, ptr %4, i64 40
  %11 = load ptr, ptr %10, align 8, !tbaa !56
  %12 = icmp eq ptr %11, null
  br i1 %12, label %13, label %53

13:                                               ; preds = %8
  %14 = getelementptr inbounds nuw i8, ptr %0, i64 8
  %15 = load ptr, ptr %14, align 8, !tbaa !39
  %16 = getelementptr inbounds nuw i8, ptr %15, i64 56
  %17 = load ptr, ptr %16, align 8, !tbaa !58
  %18 = getelementptr inbounds nuw i8, ptr %4, i64 32
  %19 = load ptr, ptr %18, align 8, !tbaa !54
  %20 = getelementptr inbounds nuw i8, ptr %4, i64 48
  %21 = load i32, ptr %20, align 8, !tbaa !49
  %22 = tail call ptr %17(ptr noundef nonnull %0, ptr noundef %19, i32 noundef 0, i32 noundef %21, i32 noundef 1) #5
  store ptr %22, ptr %10, align 8, !tbaa !56
  br label %53

23:                                               ; preds = %5
  %24 = getelementptr inbounds nuw i8, ptr %0, i64 608
  %25 = load ptr, ptr %24, align 8, !tbaa !59
  %26 = getelementptr inbounds nuw i8, ptr %25, i64 8
  %27 = load ptr, ptr %26, align 8, !tbaa !60
  %28 = getelementptr inbounds nuw i8, ptr %4, i64 8
  store ptr %27, ptr %28, align 8, !tbaa !57
  br label %53

29:                                               ; preds = %2
  %30 = getelementptr inbounds nuw i8, ptr %4, i64 32
  %31 = load ptr, ptr %30, align 8, !tbaa !54
  %32 = icmp eq ptr %31, null
  br i1 %32, label %33, label %37

33:                                               ; preds = %29
  %34 = load ptr, ptr %0, align 8, !tbaa !33
  %35 = getelementptr inbounds nuw i8, ptr %34, i64 40
  store i32 4, ptr %35, align 8, !tbaa !34
  %36 = load ptr, ptr %34, align 8, !tbaa !38
  tail call void %36(ptr noundef nonnull %0) #5
  br label %37

37:                                               ; preds = %33, %29
  %38 = getelementptr inbounds nuw i8, ptr %4, i64 8
  store ptr @post_process_prepass, ptr %38, align 8, !tbaa !57
  br label %53

39:                                               ; preds = %2
  %40 = getelementptr inbounds nuw i8, ptr %4, i64 32
  %41 = load ptr, ptr %40, align 8, !tbaa !54
  %42 = icmp eq ptr %41, null
  br i1 %42, label %43, label %47

43:                                               ; preds = %39
  %44 = load ptr, ptr %0, align 8, !tbaa !33
  %45 = getelementptr inbounds nuw i8, ptr %44, i64 40
  store i32 4, ptr %45, align 8, !tbaa !34
  %46 = load ptr, ptr %44, align 8, !tbaa !38
  tail call void %46(ptr noundef nonnull %0) #5
  br label %47

47:                                               ; preds = %43, %39
  %48 = getelementptr inbounds nuw i8, ptr %4, i64 8
  store ptr @post_process_2pass, ptr %48, align 8, !tbaa !57
  br label %53

49:                                               ; preds = %2
  %50 = load ptr, ptr %0, align 8, !tbaa !33
  %51 = getelementptr inbounds nuw i8, ptr %50, i64 40
  store i32 4, ptr %51, align 8, !tbaa !34
  %52 = load ptr, ptr %50, align 8, !tbaa !38
  tail call void %52(ptr noundef nonnull %0) #5
  br label %53

53:                                               ; preds = %23, %13, %8, %49, %47, %37
  %54 = getelementptr inbounds nuw i8, ptr %4, i64 56
  store i32 0, ptr %54, align 8, !tbaa !62
  %55 = getelementptr inbounds nuw i8, ptr %4, i64 52
  store i32 0, ptr %55, align 4, !tbaa !63
  ret void
}